target datalayout = "e-m:e-p270:32:32-p271:32:32-p272:64:64-i64:64-i128:128-f80:128-n8:16:32:64-S128"
target triple = "x86_64-pc-linux-gnu"

%"class.ncnn::Mat" = type { ptr, ptr, i64, i32, ptr, i32, i32, i32, i32, i32, i64 }
%struct.__ncnn_modelbin_t = type { ptr, ptr, ptr, ptr }

; Function Attrs: mustprogress uwtable
define internal noundef ptr @_ZL37__ncnn_ModelBinFromDataReader_load_2dP17__ncnn_modelbin_tiii(ptr noundef %0, i32 noundef %1, i32 noundef %2, i32 noundef %3) #1 personality ptr @__gxx_personality_v0 {
  %5 = alloca ptr, align 8
  %6 = alloca i32, align 4
  %7 = alloca i32, align 4
  %8 = alloca i32, align 4
  %9 = alloca ptr, align 8
  %10 = alloca i32, align 4
  store ptr %0, ptr %5, align 8
  store i32 %1, ptr %6, align 4
  store i32 %2, ptr %7, align 4
  store i32 %3, ptr %8, align 4
  %11 = call noalias noundef nonnull ptr @_Znwm(i64 noundef 72) #13
  %12 = load ptr, ptr %5, align 8
  %13 = getelementptr inbounds nuw %struct.__ncnn_modelbin_t, ptr %12, i32 0, i32 0
  %14 = load ptr, ptr %13, align 8
  %15 = load i32, ptr %6, align 4
  %16 = load i32, ptr %7, align 4
  %17 = load i32, ptr %8, align 4
  invoke void @_ZNK4ncnn8ModelBin4loadEiii(ptr dead_on_unwind writable sret(%"class.ncnn::Mat") align 8 %11, ptr noundef nonnull align 8 dereferenceable(8) %14, i32 noundef %15, i32 noundef %16, i32 noundef %17)
          to label %18 unwind label %19

18:                                               ; preds = %4
  ret ptr %11

19:                                               ; preds = %4
  %20 = landingpad { ptr, i32 }
          cleanup
  %21 = extractvalue { ptr, i32 } %20, 0
  store ptr %21, ptr %9, align 8
  %22 = extractvalue { ptr, i32 } %20, 1
  store i32 %22, ptr %10, align 4
  call void @_ZdlPvm(ptr noundef %11, i64 noundef 72) #14
  br label %23

23:                                               ; preds = %19
  %24 = load ptr, ptr %9, align 8
  %25 = load i32, ptr %10, align 4
  %26 = insertvalue { ptr, i32 } poison, ptr %24, 0
  %27 = insertvalue { ptr, i32 } %26, i32 %25, 1
  resume { ptr, i32 } %27
}