; Function Attrs: mustprogress uwtable
define internal noundef nonnull ptr @_ZL37__ncnn_ModelBinFromDataReader_load_2dP17__ncnn_modelbin_tiii(ptr nocapture noundef readonly %0, i32 noundef %1, i32 noundef %2, i32 noundef %3) #1 personality ptr @__gxx_personality_v0 {
  %5 = tail call noalias noundef nonnull dereferenceable(72) ptr @_Znwm(i64 noundef 72) #24
  %6 = load ptr, ptr %0, align 8
  invoke void @_ZNK4ncnn8ModelBin4loadEiii(ptr dead_on_unwind nonnull writable sret(%"class.ncnn::Mat") align 8 %5, ptr noundef nonnull align 8 dereferenceable(8) %6, i32 noundef %1, i32 noundef %2, i32 noundef %3)
          to label %7 unwind label %8

7:                                                ; preds = %4
  ret ptr %5

8:                                                ; preds = %4
  %9 = landingpad { ptr, i32 }
          cleanup
  tail call void @_ZdlPvm(ptr noundef nonnull %5, i64 noundef 72) #25
  resume { ptr, i32 } %9
}